; Function Attrs: nounwind uwtable
define internal fastcc zeroext i1 @_equalRangeSubselect(ptr noundef nonnull readonly captures(none) %0, ptr noundef nonnull readonly captures(none) %1) unnamed_addr #0 {
  %3 = getelementptr inbounds nuw i8, ptr %0, i64 4
  %4 = load i8, ptr %3, align 4, !range !4, !noundef !5
  %5 = getelementptr inbounds nuw i8, ptr %1, i64 4
  %6 = load i8, ptr %5, align 4, !range !4, !noundef !5
  %.not = icmp eq i8 %4, %6
  br i1 %.not, label %7, label %19

7:                                                ; preds = %2
  %8 = getelementptr inbounds nuw i8, ptr %0, i64 8
  %9 = load ptr, ptr %8, align 8
  %10 = getelementptr inbounds nuw i8, ptr %1, i64 8
  %11 = load ptr, ptr %10, align 8
  %12 = tail call zeroext i1 @equal(ptr noundef %9, ptr noundef %11)
  br i1 %12, label %13, label %19

13:                                               ; preds = %7
  %14 = getelementptr inbounds nuw i8, ptr %0, i64 16
  %15 = load ptr, ptr %14, align 8
  %16 = getelementptr inbounds nuw i8, ptr %1, i64 16
  %17 = load ptr, ptr %16, align 8
  %18 = tail call zeroext i1 @equal(ptr noundef %15, ptr noundef %17)
  br label %19

19:                                               ; preds = %13, %7, %2
  %.0 = phi i1 [ false, %2 ], [ false, %7 ], [ %18, %13 ]
  ret i1 %.0
}